target datalayout = "e-m:e-p270:32:32-p271:32:32-p272:64:64-i64:64-i128:128-f80:128-n8:16:32:64-S128"
target triple = "x86_64-pc-linux-gnu"

%union.pthread_cond_t = type { %struct.__pthread_cond_s }
%struct.__pthread_cond_s = type { %union.__atomic_wide_counter, %union.__atomic_wide_counter, [2 x i32], [2 x i32], i32, i32, [2 x i32] }
%union.__atomic_wide_counter = type { i64 }
%struct.CPOOL = type { i32, i32, ptr, ptr }
%struct.CP_ENTRY = type { ptr, ptr, i32, i64, i8, i8, i8 }
%union.pthread_mutex_t = type { %struct.__pthread_mutex_s }
%struct.__pthread_mutex_s = type { i32, i32, i32, i32, i32, i16, i16, %struct.__pthread_internal_list }
%struct.__pthread_internal_list = type { ptr, ptr }
%struct.timespec = type { i64, i64 }

@cp = dso_local global ptr null, align 8
@quitting = internal global i32 1, align 4
@mon_cond = internal global %union.pthread_cond_t zeroinitializer, align 8
@.str.18 = private unnamed_addr constant [32 x i8] c"Probe for slot %u returned: %s\0A\00", align 1
@.str.19 = private unnamed_addr constant [7 x i8] c"failed\00", align 1
@.str.20 = private unnamed_addr constant [8 x i8] c"success\00", align 1
@.str.21 = private unnamed_addr constant [41 x i8] c"No clamd server appears to be available\0A\00", align 1

; Function Attrs: nounwind uwtable
define internal void @cpool_probe() #0 {
  %1 = alloca i32, align 4
  %2 = alloca i32, align 4
  %3 = alloca ptr, align 8
  %4 = alloca i64, align 8
  call void @llvm.lifetime.start.p0(i64 4, ptr %1) #9
  call void @llvm.lifetime.start.p0(i64 4, ptr %2) #9
  store i32 0, ptr %2, align 4, !tbaa !9
  call void @llvm.lifetime.start.p0(i64 8, ptr %3) #9
  %5 = load ptr, ptr @cp, align 8, !tbaa !11
  %6 = getelementptr inbounds nuw %struct.CPOOL, ptr %5, i32 0, i32 3
  %7 = load ptr, ptr %6, align 8, !tbaa !26
  store ptr %7, ptr %3, align 8, !tbaa !27
  call void @llvm.lifetime.start.p0(i64 8, ptr %4) #9
  %8 = call i64 @time(ptr noundef null) #9
  store i64 %8, ptr %4, align 8, !tbaa !51
  store i32 1, ptr %1, align 4, !tbaa !9
  br label %9

9:                                                ; preds = %62, %0
  %10 = load i32, ptr %1, align 4, !tbaa !9
  %11 = load ptr, ptr @cp, align 8, !tbaa !11
  %12 = getelementptr inbounds nuw %struct.CPOOL, ptr %11, i32 0, i32 0
  %13 = load i32, ptr %12, align 8, !tbaa !25
  %14 = icmp ule i32 %10, %13
  br i1 %14, label %15, label %65

15:                                               ; preds = %9
  %16 = load ptr, ptr %3, align 8, !tbaa !27
  %17 = getelementptr inbounds nuw %struct.CP_ENTRY, ptr %16, i32 0, i32 5
  %18 = load i8, ptr %17, align 1, !tbaa !37
  %19 = zext i8 %18 to i32
  %20 = icmp ne i32 %19, 0
  br i1 %20, label %21, label %33

21:                                               ; preds = %15
  %22 = load ptr, ptr %3, align 8, !tbaa !27
  %23 = getelementptr inbounds nuw %struct.CP_ENTRY, ptr %22, i32 0, i32 3
  %24 = load i64, ptr %23, align 8, !tbaa !39
  %25 = load i64, ptr %4, align 8, !tbaa !51
  %26 = sub nsw i64 %25, 120
  %27 = icmp slt i64 %24, %26
  br i1 %27, label %40, label %28

28:                                               ; preds = %21
  %29 = load ptr, ptr @cp, align 8, !tbaa !11
  %30 = getelementptr inbounds nuw %struct.CPOOL, ptr %29, i32 0, i32 1
  %31 = load i32, ptr %30, align 4, !tbaa !58
  %32 = icmp ne i32 %31, 0
  br i1 %32, label %33, label %40

33:                                               ; preds = %28, %15
  %34 = load ptr, ptr %3, align 8, !tbaa !27
  %35 = getelementptr inbounds nuw %struct.CP_ENTRY, ptr %34, i32 0, i32 3
  %36 = load i64, ptr %35, align 8, !tbaa !39
  %37 = load i64, ptr %4, align 8, !tbaa !51
  %38 = sub nsw i64 %37, 54000
  %39 = icmp slt i64 %36, %38
  br i1 %39, label %40, label %53

40:                                               ; preds = %33, %28, %21
  %41 = call i64 @time(ptr noundef null) #9
  %42 = load ptr, ptr %3, align 8, !tbaa !27
  %43 = getelementptr inbounds nuw %struct.CP_ENTRY, ptr %42, i32 0, i32 3
  store i64 %41, ptr %43, align 8, !tbaa !39
  %44 = load ptr, ptr %3, align 8, !tbaa !27
  call void @nc_ping_entry(ptr noundef %44)
  %45 = load i32, ptr %1, align 4, !tbaa !9
  %46 = load ptr, ptr %3, align 8, !tbaa !27
  %47 = getelementptr inbounds nuw %struct.CP_ENTRY, ptr %46, i32 0, i32 5
  %48 = load i8, ptr %47, align 1, !tbaa !37
  %49 = zext i8 %48 to i32
  %50 = icmp ne i32 %49, 0
  %51 = select i1 %50, ptr @.str.19, ptr @.str.20
  %52 = call i32 (i32, ptr, ...) @logg(i32 noundef 2, ptr noundef @.str.18, i32 noundef %45, ptr noundef %51)
  br label %53

53:                                               ; preds = %40, %33
  %54 = load ptr, ptr %3, align 8, !tbaa !27
  %55 = getelementptr inbounds nuw %struct.CP_ENTRY, ptr %54, i32 0, i32 5
  %56 = load i8, ptr %55, align 1, !tbaa !37
  %57 = zext i8 %56 to i32
  %58 = load i32, ptr %2, align 4, !tbaa !9
  %59 = add i32 %58, %57
  store i32 %59, ptr %2, align 4, !tbaa !9
  %60 = load ptr, ptr %3, align 8, !tbaa !27
  %61 = getelementptr inbounds nuw %struct.CP_ENTRY, ptr %60, i32 1
  store ptr %61, ptr %3, align 8, !tbaa !27
  br label %62

62:                                               ; preds = %53
  %63 = load i32, ptr %1, align 4, !tbaa !9
  %64 = add i32 %63, 1
  store i32 %64, ptr %1, align 4, !tbaa !9
  br label %9

65:                                               ; preds = %9
  %66 = load ptr, ptr @cp, align 8, !tbaa !11
  %67 = getelementptr inbounds nuw %struct.CPOOL, ptr %66, i32 0, i32 0
  %68 = load i32, ptr %67, align 8, !tbaa !25
  %69 = load i32, ptr %2, align 4, !tbaa !9
  %70 = sub i32 %68, %69
  %71 = load ptr, ptr @cp, align 8, !tbaa !11
  %72 = getelementptr inbounds nuw %struct.CPOOL, ptr %71, i32 0, i32 1
  store i32 %70, ptr %72, align 4, !tbaa !58
  %73 = load ptr, ptr @cp, align 8, !tbaa !11
  %74 = getelementptr inbounds nuw %struct.CPOOL, ptr %73, i32 0, i32 1
  %75 = load i32, ptr %74, align 4, !tbaa !58
  %76 = icmp ne i32 %75, 0
  br i1 %76, label %79, label %77

77:                                               ; preds = %65
  %78 = call i32 (i32, ptr, ...) @logg(i32 noundef 4, ptr noundef @.str.21)
  br label %79

79:                                               ; preds = %77, %65
  call void @llvm.lifetime.end.p0(i64 8, ptr %4) #9
  call void @llvm.lifetime.end.p0(i64 8, ptr %3) #9
  call void @llvm.lifetime.end.p0(i64 4, ptr %2) #9
  call void @llvm.lifetime.end.p0(i64 4, ptr %1) #9
  ret void
}

; Function Attrs: nounwind uwtable
define internal ptr @cpool_mon(ptr noundef %0) #0 {
  %2 = alloca ptr, align 8
  %3 = alloca %union.pthread_mutex_t, align 8
  %4 = alloca %struct.timespec, align 8
  store ptr %0, ptr %2, align 8, !tbaa !52
  call void @llvm.lifetime.start.p0(i64 40, ptr %3) #9
  %5 = call i32 @pthread_mutex_init(ptr noundef %3, ptr noundef null) #9
  %6 = call i32 @pthread_mutex_lock(ptr noundef %3) #9
  br label %7

7:                                                ; preds = %11, %1
  %8 = load i32, ptr @quitting, align 4, !tbaa !9
  %9 = icmp ne i32 %8, 0
  %10 = xor i1 %9, true
  br i1 %10, label %11, label %17

11:                                               ; preds = %7
  call void @llvm.lifetime.start.p0(i64 16, ptr %4) #9
  call void @cpool_probe()
  %12 = call i64 @time(ptr noundef null) #9
  %13 = add nsw i64 %12, 60
  %14 = getelementptr inbounds nuw %struct.timespec, ptr %4, i32 0, i32 0
  store i64 %13, ptr %14, align 8, !tbaa !53
  %15 = getelementptr inbounds nuw %struct.timespec, ptr %4, i32 0, i32 1
  store i64 0, ptr %15, align 8, !tbaa !55
  %16 = call i32 @pthread_cond_timedwait(ptr noundef @mon_cond, ptr noundef %3, ptr noundef %4)
  call void @llvm.lifetime.end.p0(i64 16, ptr %4) #9
  br label %7

17:                                               ; preds = %7
  %18 = call i32 @pthread_mutex_unlock(ptr noundef %3) #9
  %19 = call i32 @pthread_mutex_destroy(ptr noundef %3) #9
  call void @llvm.lifetime.end.p0(i64 40, ptr %3) #9
  ret ptr null
}