; Function Attrs: nounwind uwtable
define internal noalias noundef ptr @cpool_mon(ptr readnone captures(none) %0) #0 {
  %2 = alloca %union.pthread_mutex_t, align 8
  %3 = alloca %struct.timespec, align 8
  call void @llvm.lifetime.start.p0(i64 40, ptr nonnull %2) #13
  %4 = call i32 @pthread_mutex_init(ptr noundef nonnull %2, ptr noundef null) #13
  %5 = call i32 @pthread_mutex_lock(ptr noundef nonnull %2) #13
  %.b3 = load i1, ptr @quitting, align 4
  br i1 %.b3, label %.lr.ph, label %._crit_edge

.lr.ph:                                           ; preds = %1
  %6 = getelementptr inbounds nuw i8, ptr %3, i64 8
  br label %7

7:                                                ; preds = %.lr.ph, %cpool_probe.exit
  call void @llvm.lifetime.start.p0(i64 16, ptr nonnull %3) #13
  %8 = load ptr, ptr @cp, align 8, !tbaa !4
  %9 = getelementptr inbounds nuw i8, ptr %8, i64 16
  %10 = load ptr, ptr %9, align 8, !tbaa !17
  %11 = call i64 @time(ptr noundef null) #13
  %12 = load ptr, ptr @cp, align 8, !tbaa !4
  %13 = load i32, ptr %12, align 8, !tbaa !20
  %.not22.i = icmp eq i32 %13, 0
  br i1 %.not22.i, label %._crit_edge.thread.i, label %.lr.ph.i

._crit_edge.thread.i:                             ; preds = %7
  %14 = getelementptr inbounds nuw i8, ptr %12, i64 4
  store i32 0, ptr %14, align 4, !tbaa !48
  br label %42

.lr.ph.i:                                         ; preds = %7
  %15 = add nsw i64 %11, -120
  %16 = add nsw i64 %11, -54000
  br label %17

17:                                               ; preds = %32, %.lr.ph.i
  %18 = phi i32 [ %13, %.lr.ph.i ], [ %33, %32 ]
  %19 = phi ptr [ %12, %.lr.ph.i ], [ %34, %32 ]
  %.025.i = phi i32 [ 1, %.lr.ph.i ], [ %39, %32 ]
  %.01424.i = phi ptr [ %10, %.lr.ph.i ], [ %38, %32 ]
  %.01523.i = phi i32 [ 0, %.lr.ph.i ], [ %37, %32 ]
  %20 = getelementptr inbounds nuw i8, ptr %.01424.i, i64 33
  %21 = load i8, ptr %20, align 1, !tbaa !30
  %.not18.i = icmp eq i8 %21, 0
  %.phi.trans.insert.i = getelementptr inbounds nuw i8, ptr %.01424.i, i64 24
  %.pre.i = load i64, ptr %.phi.trans.insert.i, align 8, !tbaa !32
  br i1 %.not18.i, label %._crit_edge31.i, label %22

22:                                               ; preds = %17
  %23 = icmp slt i64 %.pre.i, %15
  br i1 %23, label %27, label %24

24:                                               ; preds = %22
  %25 = getelementptr inbounds nuw i8, ptr %19, i64 4
  %26 = load i32, ptr %25, align 4, !tbaa !48
  %.not19.i = icmp eq i32 %26, 0
  br i1 %.not19.i, label %27, label %32

._crit_edge31.i:                                  ; preds = %17
  %.old = icmp slt i64 %.pre.i, %16
  br i1 %.old, label %27, label %32

27:                                               ; preds = %._crit_edge31.i, %24, %22
  %28 = call i64 @time(ptr noundef null) #13
  store i64 %28, ptr %.phi.trans.insert.i, align 8, !tbaa !32
  call void @nc_ping_entry(ptr noundef nonnull %.01424.i) #13
  %29 = load i8, ptr %20, align 1, !tbaa !30
  %.not20.i = icmp eq i8 %29, 0
  %30 = select i1 %.not20.i, ptr @.str.20, ptr @.str.19
  %31 = call i32 (i32, ptr, ...) @logg(i32 noundef 2, ptr noundef nonnull @.str.18, i32 noundef %.025.i, ptr noundef nonnull %30) #13
  %.pre32.i = load i8, ptr %20, align 1, !tbaa !30
  %.pre33.i = load ptr, ptr @cp, align 8, !tbaa !4
  %.pre34.i = load i32, ptr %.pre33.i, align 8, !tbaa !20
  br label %32

32:                                               ; preds = %24, %27, %._crit_edge31.i
  %33 = phi i32 [ %.pre34.i, %27 ], [ %18, %._crit_edge31.i ], [ %18, %24 ]
  %34 = phi ptr [ %.pre33.i, %27 ], [ %19, %._crit_edge31.i ], [ %19, %24 ]
  %35 = phi i8 [ %.pre32.i, %27 ], [ 0, %._crit_edge31.i ], [ %21, %24 ]
  %36 = zext i8 %35 to i32
  %37 = add i32 %.01523.i, %36
  %38 = getelementptr inbounds nuw i8, ptr %.01424.i, i64 40
  %39 = add i32 %.025.i, 1
  %.not.i = icmp ugt i32 %39, %33
  br i1 %.not.i, label %._crit_edge.i, label %17

._crit_edge.i:                                    ; preds = %32
  %40 = sub i32 %33, %37
  %41 = getelementptr inbounds nuw i8, ptr %34, i64 4
  store i32 %40, ptr %41, align 4, !tbaa !48
  %.not17.i = icmp eq i32 %33, %37
  br i1 %.not17.i, label %42, label %cpool_probe.exit

42:                                               ; preds = %._crit_edge.i, %._crit_edge.thread.i
  %43 = call i32 (i32, ptr, ...) @logg(i32 noundef 4, ptr noundef nonnull @.str.21) #13
  br label %cpool_probe.exit

cpool_probe.exit:                                 ; preds = %._crit_edge.i, %42
  %44 = call i64 @time(ptr noundef null) #13
  %45 = add nsw i64 %44, 60
  store i64 %45, ptr %3, align 8, !tbaa !49
  store i64 0, ptr %6, align 8, !tbaa !51
  %46 = call i32 @pthread_cond_timedwait(ptr noundef nonnull @mon_cond, ptr noundef nonnull %2, ptr noundef nonnull %3) #13
  call void @llvm.lifetime.end.p0(i64 16, ptr nonnull %3) #13
  %.b = load i1, ptr @quitting, align 4
  br i1 %.b, label %7, label %._crit_edge

._crit_edge:                                      ; preds = %cpool_probe.exit, %1
  %47 = call i32 @pthread_mutex_unlock(ptr noundef nonnull %2) #13
  %48 = call i32 @pthread_mutex_destroy(ptr noundef nonnull %2) #13
  call void @llvm.lifetime.end.p0(i64 40, ptr nonnull %2) #13
  ret ptr null
}